target datalayout = "e-m:e-p270:32:32-p271:32:32-p272:64:64-i64:64-i128:128-f80:128-n8:16:32:64-S128"
target triple = "x86_64-pc-linux-gnu"

%"class.cm::static_string_view" = type { %"class.std::basic_string_view" }
%"class.std::basic_string_view" = type { i64, ptr }

@.str = private unnamed_addr constant [10 x i8] c"INTERFACE\00", align 1
@.str.3 = private unnamed_addr constant [7 x i8] c"PUBLIC\00", align 1
@.str.4 = private unnamed_addr constant [8 x i8] c"PRIVATE\00", align 1
@.str.5 = private unnamed_addr constant [1 x i8] zeroinitializer, align 1

; Function Attrs: mustprogress nounwind uwtable
define linkonce_odr dso_local void @_ZN2cm18static_string_viewC2ESt17basic_string_viewIcSt11char_traitsIcEE(ptr noundef nonnull align 8 dereferenceable(16) %0, i64 %1, ptr %2) unnamed_addr #6 comdat align 2 {
  %4 = alloca %"class.std::basic_string_view", align 8
  %5 = alloca ptr, align 8
  %6 = getelementptr inbounds nuw { i64, ptr }, ptr %4, i32 0, i32 0
  store i64 %1, ptr %6, align 8
  %7 = getelementptr inbounds nuw { i64, ptr }, ptr %4, i32 0, i32 1
  store ptr %2, ptr %7, align 8
  store ptr %0, ptr %5, align 8, !tbaa !150
  %8 = load ptr, ptr %5, align 8
  call void @llvm.memcpy.p0.p0.i64(ptr align 8 %8, ptr align 8 %4, i64 16, i1 false), !tbaa.struct !26
  ret void
}

; Function Attrs: mustprogress nounwind uwtable
define linkonce_odr dso_local void @_ZNSt17basic_string_viewIcSt11char_traitsIcEEC2EPKcm(ptr noundef nonnull align 8 dereferenceable(16) %0, ptr noundef %1, i64 noundef %2) unnamed_addr #6 comdat align 2 {
  %4 = alloca ptr, align 8
  %5 = alloca ptr, align 8
  %6 = alloca i64, align 8
  store ptr %0, ptr %4, align 8, !tbaa !27
  store ptr %1, ptr %5, align 8, !tbaa !22
  store i64 %2, ptr %6, align 8, !tbaa !17
  %7 = load ptr, ptr %4, align 8
  %8 = getelementptr inbounds nuw %"class.std::basic_string_view", ptr %7, i32 0, i32 0
  %9 = load i64, ptr %6, align 8, !tbaa !17
  store i64 %9, ptr %8, align 8, !tbaa !147
  %10 = getelementptr inbounds nuw %"class.std::basic_string_view", ptr %7, i32 0, i32 1
  %11 = load ptr, ptr %5, align 8, !tbaa !22
  store ptr %11, ptr %10, align 8, !tbaa !149
  ret void
}

; Function Attrs: inlinehint mustprogress uwtable
define linkonce_odr dso_local { i64, ptr } @_ZN2cmli2_sEPKcm(ptr noundef %0, i64 noundef %1) #7 comdat {
  %3 = alloca %"class.cm::static_string_view", align 8
  %4 = alloca ptr, align 8
  %5 = alloca i64, align 8
  %6 = alloca %"class.std::basic_string_view", align 8
  store ptr %0, ptr %4, align 8, !tbaa !22
  store i64 %1, ptr %5, align 8, !tbaa !17
  %7 = load ptr, ptr %4, align 8, !tbaa !22
  %8 = load i64, ptr %5, align 8, !tbaa !17
  call void @_ZNSt17basic_string_viewIcSt11char_traitsIcEEC2EPKcm(ptr noundef nonnull align 8 dereferenceable(16) %6, ptr noundef %7, i64 noundef %8) #3
  %9 = getelementptr inbounds nuw { i64, ptr }, ptr %6, i32 0, i32 0
  %10 = load i64, ptr %9, align 8
  %11 = getelementptr inbounds nuw { i64, ptr }, ptr %6, i32 0, i32 1
  %12 = load ptr, ptr %11, align 8
  call void @_ZN2cm18static_string_viewC2ESt17basic_string_viewIcSt11char_traitsIcEE(ptr noundef nonnull align 8 dereferenceable(16) %3, i64 %10, ptr %12)
  %13 = getelementptr inbounds nuw %"class.cm::static_string_view", ptr %3, i32 0, i32 0
  %14 = load { i64, ptr }, ptr %13, align 8
  ret { i64, ptr } %14
}

; Function Attrs: mustprogress uwtable
define dso_local { i64, ptr } @_Z25cmFileSetVisibilityToName19cmFileSetVisibility(i32 noundef %0) #5 {
  %2 = alloca %"class.cm::static_string_view", align 8
  %3 = alloca i32, align 4
  store i32 %0, ptr %3, align 4, !tbaa !20
  %4 = load i32, ptr %3, align 4, !tbaa !20
  switch i32 %4, label %26 [
    i32 2, label %5
    i32 1, label %12
    i32 0, label %19
  ]

5:                                                ; preds = %1
  %6 = call { i64, ptr } @_ZN2cmli2_sEPKcm(ptr noundef @.str, i64 noundef 9)
  %7 = getelementptr inbounds nuw %"class.cm::static_string_view", ptr %2, i32 0, i32 0
  %8 = getelementptr inbounds nuw { i64, ptr }, ptr %7, i32 0, i32 0
  %9 = extractvalue { i64, ptr } %6, 0
  store i64 %9, ptr %8, align 8
  %10 = getelementptr inbounds nuw { i64, ptr }, ptr %7, i32 0, i32 1
  %11 = extractvalue { i64, ptr } %6, 1
  store ptr %11, ptr %10, align 8
  br label %33

12:                                               ; preds = %1
  %13 = call { i64, ptr } @_ZN2cmli2_sEPKcm(ptr noundef @.str.3, i64 noundef 6)
  %14 = getelementptr inbounds nuw %"class.cm::static_string_view", ptr %2, i32 0, i32 0
  %15 = getelementptr inbounds nuw { i64, ptr }, ptr %14, i32 0, i32 0
  %16 = extractvalue { i64, ptr } %13, 0
  store i64 %16, ptr %15, align 8
  %17 = getelementptr inbounds nuw { i64, ptr }, ptr %14, i32 0, i32 1
  %18 = extractvalue { i64, ptr } %13, 1
  store ptr %18, ptr %17, align 8
  br label %33

19:                                               ; preds = %1
  %20 = call { i64, ptr } @_ZN2cmli2_sEPKcm(ptr noundef @.str.4, i64 noundef 7)
  %21 = getelementptr inbounds nuw %"class.cm::static_string_view", ptr %2, i32 0, i32 0
  %22 = getelementptr inbounds nuw { i64, ptr }, ptr %21, i32 0, i32 0
  %23 = extractvalue { i64, ptr } %20, 0
  store i64 %23, ptr %22, align 8
  %24 = getelementptr inbounds nuw { i64, ptr }, ptr %21, i32 0, i32 1
  %25 = extractvalue { i64, ptr } %20, 1
  store ptr %25, ptr %24, align 8
  br label %33

26:                                               ; preds = %1
  %27 = call { i64, ptr } @_ZN2cmli2_sEPKcm(ptr noundef @.str.5, i64 noundef 0)
  %28 = getelementptr inbounds nuw %"class.cm::static_string_view", ptr %2, i32 0, i32 0
  %29 = getelementptr inbounds nuw { i64, ptr }, ptr %28, i32 0, i32 0
  %30 = extractvalue { i64, ptr } %27, 0
  store i64 %30, ptr %29, align 8
  %31 = getelementptr inbounds nuw { i64, ptr }, ptr %28, i32 0, i32 1
  %32 = extractvalue { i64, ptr } %27, 1
  store ptr %32, ptr %31, align 8
  br label %33

33:                                               ; preds = %26, %19, %12, %5
  %34 = getelementptr inbounds nuw %"class.cm::static_string_view", ptr %2, i32 0, i32 0
  %35 = load { i64, ptr }, ptr %34, align 8
  ret { i64, ptr } %35
}