; Function Attrs: mustprogress nofree norecurse nosync nounwind willreturn memory(none) uwtable
define dso_local { i64, ptr } @_Z25cmFileSetVisibilityToName19cmFileSetVisibility(i32 noundef %0) local_unnamed_addr #5 {
  switch i32 %0, label %4 [
    i32 2, label %5
    i32 1, label %2
    i32 0, label %3
  ]

2:                                                ; preds = %1
  br label %5

3:                                                ; preds = %1
  br label %5

4:                                                ; preds = %1
  br label %5

5:                                                ; preds = %1, %4, %3, %2
  %.pn = phi { i64, ptr } [ { i64 0, ptr @.str.5 }, %4 ], [ { i64 7, ptr @.str.4 }, %3 ], [ { i64 6, ptr @.str.3 }, %2 ], [ { i64 9, ptr @.str }, %1 ]
  ret { i64, ptr } %.pn
}